

Microchip MPLAB XC8 Assembler V2.46 build 20240104201356 
                                                                                               Tue Aug 13 09:56:04 2024

Microchip MPLAB XC8 C Compiler v2.46 (Free license) build 20240104201356 Og1 
     1                           	processor	18F4580
     2                           	fnconf	rparam,??,?,0
     3                           	pagewidth 120
     4                           	opt	flic
     5                           	psect	idataCOMRAM,global,class=CODE,delta=1,noexec
     6                           	psect	smallconst,global,reloc=2,class=SMALLCONST,delta=1,noexec
     7                           	psect	cinit,global,reloc=2,class=CODE,delta=1
     8                           	psect	bssCOMRAM,global,class=COMRAM,space=1,delta=1,lowdata,noexec
     9                           	psect	dataCOMRAM,global,class=COMRAM,space=1,delta=1,lowdata,noexec
    10                           	psect	cstackCOMRAM,global,class=COMRAM,space=1,delta=1,lowdata,noexec
    11                           	psect	text0,global,reloc=2,class=CODE,delta=1
    12                           	psect	text1,global,reloc=2,class=CODE,delta=1,group=2
    13                           	psect	text2,global,reloc=2,class=CODE,delta=1
    14                           	psect	text3,global,reloc=2,class=CODE,delta=1
    15                           	psect	text4,global,reloc=2,class=CODE,delta=1
    16                           	psect	text5,global,reloc=2,class=CODE,delta=1
    17                           	psect	intsave_regs,global,class=BIGRAM,space=1,delta=1,noexec
    18                           	psect	rparam,global,class=COMRAM,space=1,delta=1,noexec
    19   000000                     
    20                           ; Generated 17/10/2023 GMT
    21                           ; 
    22                           ; Copyright © 2023, Microchip Technology Inc. and its subsidiaries ("Microchip")
    23                           ; All rights reserved.
    24                           ; 
    25                           ; This software is developed by Microchip Technology Inc. and its subsidiaries ("Microch
      +                          ip").
    26                           ; 
    27                           ; Redistribution and use in source and binary forms, with or without modification, are
    28                           ; permitted provided that the following conditions are met:
    29                           ; 
    30                           ;     1. Redistributions of source code must retain the above copyright notice, this lis
      +                          t of
    31                           ;        conditions and the following disclaimer.
    32                           ; 
    33                           ;     2. Redistributions in binary form must reproduce the above copyright notice, this 
      +                          list
    34                           ;        of conditions and the following disclaimer in the documentation and/or other
    35                           ;        materials provided with the distribution. Publication is not required when
    36                           ;        this file is used in an embedded application.
    37                           ; 
    38                           ;     3. Microchip's name may not be used to endorse or promote products derived from th
      +                          is
    39                           ;        software without specific prior written permission.
    40                           ; 
    41                           ; THIS SOFTWARE IS PROVIDED BY MICROCHIP "AS IS" AND ANY EXPRESS OR IMPLIED WARRANTIES,
    42                           ; INCLUDING, BUT NOT LIMITED TO, THE IMPLIED WARRANTIES OF MERCHANTABILITY AND FITNESS F
      +                          OR
    43                           ; PURPOSE ARE DISCLAIMED.  IN NO EVENT SHALL MICROCHIP BE LIABLE FOR ANY DIRECT, INDIREC
      +                          T,
    44                           ; INCIDENTAL, SPECIAL, EXEMPLARY, OR CONSEQUENTIAL DAMAGES (INCLUDING BUT NOT LIMITED TO
    45                           ; PROCUREMENT OF SUBSTITUTE GOODS OR SERVICES; LOSS OF USE, DATA OR PROFITS; OR BUSINESS
    46                           ; INTERRUPTION) HOWSOEVER CAUSED AND ON ANY THEORY OF LIABILITY, WHETHER IN CONTRACT, ST
      +                          RICT
    47                           ; LIABILITY, OR TORT (INCLUDING NEGLIGENCE OR OTHERWISE) ARISING IN ANY WAY OUT OF THE U
      +                          SE OF
    48                           ; THIS SOFTWARE, EVEN IF ADVISED OF THE POSSIBILITY OF SUCH DAMAGE.
    49                           ; 
    50                           ; 
    51                           ; Code-generator required, PIC18F4580 Definitions
    52                           ; 
    53                           ; SFR Addresses
    54   000000                     
    55                           	psect	idataCOMRAM
    56   000BF6                     __pidataCOMRAM:
    57                           	callstack 0
    58                           
    59                           ;initializer for _inp
    60   000BF6  30                 	db	48
    61   000BF7  30                 	db	48
    62   000BF8  30                 	db	48
    63   000BF9  30                 	db	48
    64   000BFA  00                 	db	0
    65                           
    66                           ;initializer for _pass
    67   000BFB  31                 	db	49
    68   000BFC  32                 	db	50
    69   000BFD  33                 	db	51
    70   000BFE  34                 	db	52
    71   000BFF  00                 	db	0
    72   000000                     _PORTB	set	3969
    73   000000                     _RC2	set	31762
    74   000000                     _RC1	set	31761
    75   000000                     _RB7	set	31759
    76   000000                     _RB6	set	31758
    77   000000                     _RB5	set	31757
    78   000000                     _TRISB	set	3987
    79   000000                     _ADCON1	set	4033
    80   000000                     _RB4	set	31756
    81   000000                     _TRISD	set	3989
    82   000000                     _TRISC	set	3988
    83   000000                     _PORTD	set	3971
    84   000000                     _RC0	set	31760
    85                           
    86                           	psect	smallconst
    87   000600                     __psmallconst:
    88                           	callstack 0
    89   000600  00                 	db	0
    90   000601                     STR_2:
    91   000601  50                 	db	80	;'P'
    92   000602  61                 	db	97	;'a'
    93   000603  73                 	db	115	;'s'
    94   000604  73                 	db	115	;'s'
    95   000605  77                 	db	119	;'w'
    96   000606  6F                 	db	111	;'o'
    97   000607  72                 	db	114	;'r'
    98   000608  64                 	db	100	;'d'
    99   000609  20                 	db	32
   100   00060A  43                 	db	67	;'C'
   101   00060B  6F                 	db	111	;'o'
   102   00060C  72                 	db	114	;'r'
   103   00060D  72                 	db	114	;'r'
   104   00060E  65                 	db	101	;'e'
   105   00060F  63                 	db	99	;'c'
   106   000610  74                 	db	116	;'t'
   107   000611  00                 	db	0
   108   000612                     STR_1:
   109   000612  45                 	db	69	;'E'
   110   000613  6E                 	db	110	;'n'
   111   000614  74                 	db	116	;'t'
   112   000615  65                 	db	101	;'e'
   113   000616  72                 	db	114	;'r'
   114   000617  20                 	db	32
   115   000618  50                 	db	80	;'P'
   116   000619  61                 	db	97	;'a'
   117   00061A  73                 	db	115	;'s'
   118   00061B  73                 	db	115	;'s'
   119   00061C  77                 	db	119	;'w'
   120   00061D  6F                 	db	111	;'o'
   121   00061E  72                 	db	114	;'r'
   122   00061F  64                 	db	100	;'d'
   123   000620  00                 	db	0
   124   000621                     STR_3:
   125   000621  50                 	db	80	;'P'
   126   000622  61                 	db	97	;'a'
   127   000623  73                 	db	115	;'s'
   128   000624  73                 	db	115	;'s'
   129   000625  77                 	db	119	;'w'
   130   000626  6F                 	db	111	;'o'
   131   000627  72                 	db	114	;'r'
   132   000628  64                 	db	100	;'d'
   133   000629  20                 	db	32
   134   00062A  57                 	db	87	;'W'
   135   00062B  72                 	db	114	;'r'
   136   00062C  6F                 	db	111	;'o'
   137   00062D  6E                 	db	110	;'n'
   138   00062E  67                 	db	103	;'g'
   139   00062F  00                 	db	0
   140   000630  00                 	db	0	; dummy byte at the end
   141   000000                     
   142                           ; #config settings
   143                           
   144                           	psect	cinit
   145   000B9A                     __pcinit:
   146                           	callstack 0
   147   000B9A                     start_initialization:
   148                           	callstack 0
   149   000B9A                     __initialization:
   150                           	callstack 0
   151                           
   152                           ; Initialize objects allocated to COMRAM (10 bytes)
   153                           ; load TBLPTR registers with __pidataCOMRAM
   154   000B9A  0EF6               	movlw	low __pidataCOMRAM
   155   000B9C  6EF6               	movwf	tblptrl,c
   156   000B9E  0E0B               	movlw	high __pidataCOMRAM
   157   000BA0  6EF7               	movwf	tblptrh,c
   158   000BA2  0E00               	movlw	low (__pidataCOMRAM shr (0+16))
   159   000BA4  6EF8               	movwf	tblptru,c
   160   000BA6  EE00  F023         	lfsr	0,__pdataCOMRAM
   161   000BAA  EE10 F00A          	lfsr	1,10
   162   000BAE                     copy_data0:
   163   000BAE  0009               	tblrd		*+
   164   000BB0  CFF5 FFEE          	movff	tablat,postinc0
   165   000BB4  50E5               	movf	postdec1,w,c
   166   000BB6  50E1               	movf	fsr1l,w,c
   167   000BB8  E1FA               	bnz	copy_data0
   168                           
   169                           ; Clear objects allocated to COMRAM (1 bytes)
   170   000BBA  6A2D               	clrf	__pbssCOMRAM& (0+255),c
   171   000BBC                     end_of_initialization:
   172                           	callstack 0
   173   000BBC                     __end_of__initialization:
   174                           	callstack 0
   175   000BBC  0E00               	movlw	low (__Lsmallconst shr (0+16))
   176   000BBE  6EF8               	movwf	tblptru,c
   177   000BC0  0E06               	movlw	high __Lsmallconst
   178   000BC2  6EF7               	movwf	tblptrh,c
   179   000BC4  0100               	movlb	0
   180   000BC6  EF19  F003         	goto	_main	;jump to C main() function
   181                           
   182                           	psect	bssCOMRAM
   183   00002D                     __pbssCOMRAM:
   184                           	callstack 0
   185   00002D                     _index:
   186                           	callstack 0
   187   00002D                     	ds	1
   188                           
   189                           	psect	dataCOMRAM
   190   000023                     __pdataCOMRAM:
   191                           	callstack 0
   192   000023                     _inp:
   193                           	callstack 0
   194   000023                     	ds	5
   195   000028                     _pass:
   196                           	callstack 0
   197   000028                     	ds	5
   198                           
   199                           	psect	cstackCOMRAM
   200   000001                     __pcstackCOMRAM:
   201                           	callstack 0
   202   000001                     ?_strcmp:
   203                           	callstack 0
   204   000001                     cmd@a:
   205                           	callstack 0
   206   000001                     data@a:
   207                           	callstack 0
   208   000001                     strcmp@l:
   209                           	callstack 0
   210                           
   211                           ; 1 bytes @ 0x0
   212   000001                     	ds	1
   213   000002                     strcmp@r:
   214                           	callstack 0
   215   000002                     cmd@i:
   216                           	callstack 0
   217   000002                     data@i:
   218                           	callstack 0
   219                           
   220                           ; 2 bytes @ 0x1
   221   000002                     	ds	1
   222   000003                     ??_strcmp:
   223                           
   224                           ; 1 bytes @ 0x2
   225   000003                     	ds	1
   226   000004                     cmd@i_86:
   227                           	callstack 0
   228   000004                     data@i_90:
   229                           	callstack 0
   230                           
   231                           ; 2 bytes @ 0x3
   232   000004                     	ds	2
   233   000006                     display@p:
   234                           	callstack 0
   235                           
   236                           ; 1 bytes @ 0x5
   237   000006                     	ds	1
   238   000007                     main@i:
   239                           	callstack 0
   240                           
   241                           ; 4 bytes @ 0x6
   242   000007                     	ds	4
   243   00000B                     main@i_76:
   244                           	callstack 0
   245                           
   246                           ; 4 bytes @ 0xA
   247   00000B                     	ds	4
   248   00000F                     main@i_77:
   249                           	callstack 0
   250                           
   251                           ; 4 bytes @ 0xE
   252   00000F                     	ds	4
   253   000013                     main@i_82:
   254                           	callstack 0
   255                           
   256                           ; 4 bytes @ 0x12
   257   000013                     	ds	4
   258   000017                     main@i_73:
   259                           	callstack 0
   260                           
   261                           ; 2 bytes @ 0x16
   262   000017                     	ds	2
   263   000019                     main@i_74:
   264                           	callstack 0
   265                           
   266                           ; 2 bytes @ 0x18
   267   000019                     	ds	2
   268   00001B                     main@i_75:
   269                           	callstack 0
   270                           
   271                           ; 2 bytes @ 0x1A
   272   00001B                     	ds	2
   273   00001D                     main@i_79:
   274                           	callstack 0
   275                           
   276                           ; 2 bytes @ 0x1C
   277   00001D                     	ds	2
   278   00001F                     main@i_80:
   279                           	callstack 0
   280                           
   281                           ; 2 bytes @ 0x1E
   282   00001F                     	ds	2
   283   000021                     main@i_81:
   284                           	callstack 0
   285                           
   286                           ; 2 bytes @ 0x20
   287   000021                     	ds	2
   288                           
   289 ;;
   290 ;;Main: autosize = 0, tempsize = 0, incstack = 0, save=0
   291 ;;
   292 ;; *************** function _main *****************
   293 ;; Defined at:
   294 ;;		line 18 in file "passwordblink.c"
   295 ;; Parameters:    Size  Location     Type
   296 ;;		None
   297 ;; Auto vars:     Size  Location     Type
   298 ;;  i               2   32[COMRAM] int 
   299 ;;  i               2   30[COMRAM] int 
   300 ;;  i               2   26[COMRAM] int 
   301 ;;  i               2   24[COMRAM] int 
   302 ;;  i               4   18[COMRAM] long 
   303 ;;  i               2   28[COMRAM] int 
   304 ;;  i               4   14[COMRAM] long 
   305 ;;  i               4   10[COMRAM] long 
   306 ;;  i               2   22[COMRAM] int 
   307 ;;  i               4    6[COMRAM] long 
   308 ;; Return value:  Size  Location     Type
   309 ;;                  1    wreg      void 
   310 ;; Registers used:
   311 ;;		wreg, fsr1l, fsr1h, fsr2l, fsr2h, status,2, status,0, tblptrl, tblptrh, tblptru, cstack
   312 ;; Tracked objects:
   313 ;;		On entry : 0/0
   314 ;;		On exit  : 0/0
   315 ;;		Unchanged: 0/0
   316 ;; Data sizes:     COMRAM   BANK0   BANK1   BANK2   BANK3   BANK4   BANK5
   317 ;;      Params:         0       0       0       0       0       0       0
   318 ;;      Locals:        28       0       0       0       0       0       0
   319 ;;      Temps:          0       0       0       0       0       0       0
   320 ;;      Totals:        28       0       0       0       0       0       0
   321 ;;Total ram usage:       28 bytes
   322 ;; Hardware stack levels required when called: 2
   323 ;; This function calls:
   324 ;;		_cmd
   325 ;;		_data
   326 ;;		_display
   327 ;;		_keypad
   328 ;;		_strcmp
   329 ;; This function is called by:
   330 ;;		Startup code after reset
   331 ;; This function uses a non-reentrant model
   332 ;;
   333                           
   334                           	psect	text0
   335   000632                     __ptext0:
   336                           	callstack 0
   337   000632                     _main:
   338                           	callstack 29
   339   000632                     
   340                           ;passwordblink.c: 19:     ADCON1=0X0F;
   341   000632  0E0F               	movlw	15
   342   000634  6EC1               	movwf	193,c	;volatile
   343                           
   344                           ;passwordblink.c: 20:     TRISB=0XF0;
   345   000636  0EF0               	movlw	240
   346   000638  6E93               	movwf	147,c	;volatile
   347                           
   348                           ;passwordblink.c: 21:     TRISC=TRISD=0X00;
   349   00063A  0E00               	movlw	0
   350   00063C  6E95               	movwf	149,c	;volatile
   351   00063E  CF95 FF94          	movff	3989,3988	;volatile
   352   000642                     
   353                           ;passwordblink.c: 22:     cmd(0x38);
   354   000642  0E38               	movlw	56
   355   000644  EC6E  F005         	call	_cmd
   356   000648                     
   357                           ;passwordblink.c: 23:     cmd(0x01);
   358   000648  0E01               	movlw	1
   359   00064A  EC6E  F005         	call	_cmd
   360   00064E                     
   361                           ;passwordblink.c: 24:     cmd(0x0f);
   362   00064E  0E0F               	movlw	15
   363   000650  EC6E  F005         	call	_cmd
   364   000654                     
   365                           ;passwordblink.c: 25:     cmd(0x80);
   366   000654  0E80               	movlw	128
   367   000656  EC6E  F005         	call	_cmd
   368   00065A                     l1165:
   369                           
   370                           ;passwordblink.c: 28:     {;passwordblink.c: 29:         cmd(0x01);
   371   00065A  0E01               	movlw	1
   372   00065C  EC6E  F005         	call	_cmd
   373   000660                     
   374                           ;passwordblink.c: 30:         display("Enter Password");
   375   000660  0E12               	movlw	low STR_1
   376   000662  6E06               	movwf	display@p^0,c
   377   000664  ECE5  F005         	call	_display	;wreg free
   378   000668                     
   379                           ;passwordblink.c: 31:         cmd(0xc0);
   380   000668  0EC0               	movlw	192
   381   00066A  EC6E  F005         	call	_cmd
   382   00066E                     
   383                           ;passwordblink.c: 32:         for(index=0;index<4;index++)
   384   00066E  0E00               	movlw	0
   385   000670  6E2D               	movwf	_index^0,c
   386   000672                     l1177:
   387                           
   388                           ;passwordblink.c: 33:         {;passwordblink.c: 34:          inp[index]=keypad();
   389   000672  502D               	movf	_index^0,w,c
   390   000674  0F23               	addlw	low _inp
   391   000676  6ED9               	movwf	fsr2l,c
   392   000678  6ADA               	clrf	fsr2h,c
   393   00067A  EC93  F004         	call	_keypad	;wreg free
   394   00067E  6EDF               	movwf	indf2,c
   395                           
   396                           ;passwordblink.c: 35:          data(inp[index]);
   397   000680  502D               	movf	_index^0,w,c
   398   000682  0F23               	addlw	low _inp
   399   000684  6ED9               	movwf	fsr2l,c
   400   000686  6ADA               	clrf	fsr2h,c
   401   000688  50DF               	movf	indf2,w,c
   402   00068A  EC3E  F005         	call	_data
   403   00068E                     l50:
   404   00068E  A881               	btfss	3969,4,c	;volatile
   405   000690  EF4C  F003         	goto	u431
   406   000694  EF4E  F003         	goto	u430
   407   000698                     u431:
   408   000698  EF47  F003         	goto	l50
   409   00069C                     u430:
   410   00069C  AA81               	btfss	3969,5,c	;volatile
   411   00069E  EF53  F003         	goto	u441
   412   0006A2  EF55  F003         	goto	u440
   413   0006A6                     u441:
   414   0006A6  EF47  F003         	goto	l50
   415   0006AA                     u440:
   416   0006AA  AC81               	btfss	3969,6,c	;volatile
   417   0006AC  EF5A  F003         	goto	u451
   418   0006B0  EF5C  F003         	goto	u450
   419   0006B4                     u451:
   420   0006B4  EF47  F003         	goto	l50
   421   0006B8                     u450:
   422   0006B8  AE81               	btfss	3969,7,c	;volatile
   423   0006BA  EF61  F003         	goto	u461
   424   0006BE  EF63  F003         	goto	u460
   425   0006C2                     u461:
   426   0006C2  EF47  F003         	goto	l50
   427   0006C6                     u460:
   428   0006C6                     
   429                           ;passwordblink.c: 37:         }
   430   0006C6  2A2D               	incf	_index^0,f,c
   431   0006C8  0E03               	movlw	3
   432   0006CA  642D               	cpfsgt	_index^0,c
   433   0006CC  EF6A  F003         	goto	u471
   434   0006D0  EF6C  F003         	goto	u470
   435   0006D4                     u471:
   436   0006D4  EF39  F003         	goto	l1177
   437   0006D8                     u470:
   438   0006D8                     
   439                           ;passwordblink.c: 38:         if(strcmp(inp,pass)==0)
   440   0006D8  0E23               	movlw	low _inp
   441   0006DA  6E01               	movwf	strcmp@l^0,c
   442   0006DC  0E28               	movlw	low _pass
   443   0006DE  6E02               	movwf	strcmp@r^0,c
   444   0006E0  EC9E  F005         	call	_strcmp	;wreg free
   445   0006E4  5001               	movf	?_strcmp^0,w,c
   446   0006E6  1002               	iorwf	(?_strcmp+1)^0,w,c
   447   0006E8  A4D8               	btfss	status,2,c
   448   0006EA  EF79  F003         	goto	u481
   449   0006EE  EF7B  F003         	goto	u480
   450   0006F2                     u481:
   451   0006F2  EF06  F004         	goto	l1245
   452   0006F6                     u480:
   453   0006F6                     
   454                           ;passwordblink.c: 39:         {;passwordblink.c: 41:                  for(long i=0;i<=10
      +                          0000;i++);
   455   0006F6  0E00               	movlw	0
   456   0006F8  6E07               	movwf	main@i^0,c
   457   0006FA  0E00               	movlw	0
   458   0006FC  6E08               	movwf	(main@i+1)^0,c
   459   0006FE  0E00               	movlw	0
   460   000700  6E09               	movwf	(main@i+2)^0,c
   461   000702  0E00               	movlw	0
   462   000704  6E0A               	movwf	(main@i+3)^0,c
   463   000706                     l1197:
   464   000706  0E01               	movlw	1
   465   000708  2607               	addwf	main@i^0,f,c
   466   00070A  0E00               	movlw	0
   467   00070C  2208               	addwfc	(main@i+1)^0,f,c
   468   00070E  2209               	addwfc	(main@i+2)^0,f,c
   469   000710  220A               	addwfc	(main@i+3)^0,f,c
   470   000712  BE0A               	btfsc	(main@i+3)^0,7,c
   471   000714  EF99  F003         	goto	u491
   472   000718  500A               	movf	(main@i+3)^0,w,c
   473   00071A  E10D               	bnz	u490
   474   00071C  0EA1               	movlw	161
   475   00071E  5C07               	subwf	main@i^0,w,c
   476   000720  0E86               	movlw	134
   477   000722  5808               	subwfb	(main@i+1)^0,w,c
   478   000724  0E01               	movlw	1
   479   000726  5809               	subwfb	(main@i+2)^0,w,c
   480   000728  A0D8               	btfss	status,0,c
   481   00072A  EF99  F003         	goto	u491
   482   00072E  EF9B  F003         	goto	u490
   483   000732                     u491:
   484   000732  EF83  F003         	goto	l1197
   485   000736                     u490:
   486   000736                     
   487                           ;passwordblink.c: 42:             cmd(0x01);
   488   000736  0E01               	movlw	1
   489   000738  EC6E  F005         	call	_cmd
   490   00073C                     
   491                           ;passwordblink.c: 43:             display("Password Correct");
   492   00073C  0E01               	movlw	low STR_2
   493   00073E  6E06               	movwf	display@p^0,c
   494   000740  ECE5  F005         	call	_display	;wreg free
   495   000744                     
   496                           ;passwordblink.c: 44:              for(int i=0;i<10;i++)
   497   000744  0E00               	movlw	0
   498   000746  6E18               	movwf	(main@i_73+1)^0,c
   499   000748  0E00               	movlw	0
   500   00074A  6E17               	movwf	main@i_73^0,c
   501   00074C                     l1209:
   502                           
   503                           ;passwordblink.c: 45:            {;passwordblink.c: 46:             cmd(0X08);
   504   00074C  0E08               	movlw	8
   505   00074E  EC6E  F005         	call	_cmd
   506   000752                     
   507                           ;passwordblink.c: 47:              for(int i=0;i<=30000;i++);
   508   000752  0E00               	movlw	0
   509   000754  6E1A               	movwf	(main@i_74+1)^0,c
   510   000756  0E00               	movlw	0
   511   000758  6E19               	movwf	main@i_74^0,c
   512   00075A                     l1217:
   513   00075A  4A19               	infsnz	main@i_74^0,f,c
   514   00075C  2A1A               	incf	(main@i_74+1)^0,f,c
   515   00075E  BE1A               	btfsc	(main@i_74+1)^0,7,c
   516   000760  EFBB  F003         	goto	u501
   517   000764  0E31               	movlw	49
   518   000766  5C19               	subwf	main@i_74^0,w,c
   519   000768  0E75               	movlw	117
   520   00076A  581A               	subwfb	(main@i_74+1)^0,w,c
   521   00076C  A0D8               	btfss	status,0,c
   522   00076E  EFBB  F003         	goto	u501
   523   000772  EFBD  F003         	goto	u500
   524   000776                     u501:
   525   000776  EFAD  F003         	goto	l1217
   526   00077A                     u500:
   527   00077A                     
   528                           ;passwordblink.c: 48:         cmd(0X0E);
   529   00077A  0E0E               	movlw	14
   530   00077C  EC6E  F005         	call	_cmd
   531   000780                     
   532                           ;passwordblink.c: 49:          for(int i=0;i<=30000;i++);
   533   000780  0E00               	movlw	0
   534   000782  6E1C               	movwf	(main@i_75+1)^0,c
   535   000784  0E00               	movlw	0
   536   000786  6E1B               	movwf	main@i_75^0,c
   537   000788                     l1229:
   538   000788  4A1B               	infsnz	main@i_75^0,f,c
   539   00078A  2A1C               	incf	(main@i_75+1)^0,f,c
   540   00078C  BE1C               	btfsc	(main@i_75+1)^0,7,c
   541   00078E  EFD2  F003         	goto	u511
   542   000792  0E31               	movlw	49
   543   000794  5C1B               	subwf	main@i_75^0,w,c
   544   000796  0E75               	movlw	117
   545   000798  581C               	subwfb	(main@i_75+1)^0,w,c
   546   00079A  A0D8               	btfss	status,0,c
   547   00079C  EFD2  F003         	goto	u511
   548   0007A0  EFD4  F003         	goto	u510
   549   0007A4                     u511:
   550   0007A4  EFC4  F003         	goto	l1229
   551   0007A8                     u510:
   552   0007A8                     
   553                           ;passwordblink.c: 50:              }
   554   0007A8  4A17               	infsnz	main@i_73^0,f,c
   555   0007AA  2A18               	incf	(main@i_73+1)^0,f,c
   556   0007AC  BE18               	btfsc	(main@i_73+1)^0,7,c
   557   0007AE  EFE2  F003         	goto	u521
   558   0007B2  5018               	movf	(main@i_73+1)^0,w,c
   559   0007B4  E109               	bnz	u520
   560   0007B6  0E0A               	movlw	10
   561   0007B8  5C17               	subwf	main@i_73^0,w,c
   562   0007BA  A0D8               	btfss	status,0,c
   563   0007BC  EFE2  F003         	goto	u521
   564   0007C0  EFE4  F003         	goto	u520
   565   0007C4                     u521:
   566   0007C4  EFA6  F003         	goto	l1209
   567   0007C8                     u520:
   568   0007C8                     
   569                           ;passwordblink.c: 51:              for(long i=0;i<=1000000;i++);
   570   0007C8  0E00               	movlw	0
   571   0007CA  6E0B               	movwf	main@i_76^0,c
   572   0007CC  0E00               	movlw	0
   573   0007CE  6E0C               	movwf	(main@i_76+1)^0,c
   574   0007D0  0E00               	movlw	0
   575   0007D2  6E0D               	movwf	(main@i_76+2)^0,c
   576   0007D4  0E00               	movlw	0
   577   0007D6  6E0E               	movwf	(main@i_76+3)^0,c
   578   0007D8                     l1243:
   579   0007D8  0E01               	movlw	1
   580   0007DA  260B               	addwf	main@i_76^0,f,c
   581   0007DC  0E00               	movlw	0
   582   0007DE  220C               	addwfc	(main@i_76+1)^0,f,c
   583   0007E0  220D               	addwfc	(main@i_76+2)^0,f,c
   584   0007E2  220E               	addwfc	(main@i_76+3)^0,f,c
   585   0007E4  BE0E               	btfsc	(main@i_76+3)^0,7,c
   586   0007E6  EF02  F004         	goto	u531
   587   0007EA  500E               	movf	(main@i_76+3)^0,w,c
   588   0007EC  E10D               	bnz	u530
   589   0007EE  0E41               	movlw	65
   590   0007F0  5C0B               	subwf	main@i_76^0,w,c
   591   0007F2  0E42               	movlw	66
   592   0007F4  580C               	subwfb	(main@i_76+1)^0,w,c
   593   0007F6  0E0F               	movlw	15
   594   0007F8  580D               	subwfb	(main@i_76+2)^0,w,c
   595   0007FA  A0D8               	btfss	status,0,c
   596   0007FC  EF02  F004         	goto	u531
   597   000800  EF04  F004         	goto	u530
   598   000804                     u531:
   599   000804  EFEC  F003         	goto	l1243
   600   000808                     u530:
   601   000808  EF2D  F003         	goto	l1165
   602   00080C                     l1245:
   603                           
   604                           ;passwordblink.c: 55:         {;passwordblink.c: 56:             for(long i=0;i<=100000;
      +                          i++);
   605   00080C  0E00               	movlw	0
   606   00080E  6E0F               	movwf	main@i_77^0,c
   607   000810  0E00               	movlw	0
   608   000812  6E10               	movwf	(main@i_77+1)^0,c
   609   000814  0E00               	movlw	0
   610   000816  6E11               	movwf	(main@i_77+2)^0,c
   611   000818  0E00               	movlw	0
   612   00081A  6E12               	movwf	(main@i_77+3)^0,c
   613   00081C                     l1251:
   614   00081C  0E01               	movlw	1
   615   00081E  260F               	addwf	main@i_77^0,f,c
   616   000820  0E00               	movlw	0
   617   000822  2210               	addwfc	(main@i_77+1)^0,f,c
   618   000824  2211               	addwfc	(main@i_77+2)^0,f,c
   619   000826  2212               	addwfc	(main@i_77+3)^0,f,c
   620   000828  BE12               	btfsc	(main@i_77+3)^0,7,c
   621   00082A  EF24  F004         	goto	u541
   622   00082E  5012               	movf	(main@i_77+3)^0,w,c
   623   000830  E10D               	bnz	u540
   624   000832  0EA1               	movlw	161
   625   000834  5C0F               	subwf	main@i_77^0,w,c
   626   000836  0E86               	movlw	134
   627   000838  5810               	subwfb	(main@i_77+1)^0,w,c
   628   00083A  0E01               	movlw	1
   629   00083C  5811               	subwfb	(main@i_77+2)^0,w,c
   630   00083E  A0D8               	btfss	status,0,c
   631   000840  EF24  F004         	goto	u541
   632   000844  EF26  F004         	goto	u540
   633   000848                     u541:
   634   000848  EF0E  F004         	goto	l1251
   635   00084C                     u540:
   636   00084C                     
   637                           ;passwordblink.c: 57:             cmd(0x01);
   638   00084C  0E01               	movlw	1
   639   00084E  EC6E  F005         	call	_cmd
   640   000852                     
   641                           ;passwordblink.c: 58:             display("Password Wrong");
   642   000852  0E21               	movlw	low STR_3
   643   000854  6E06               	movwf	display@p^0,c
   644   000856  ECE5  F005         	call	_display	;wreg free
   645   00085A                     
   646                           ;passwordblink.c: 59:             for(int i=0;i<10;i++)
   647   00085A  0E00               	movlw	0
   648   00085C  6E1E               	movwf	(main@i_79+1)^0,c
   649   00085E  0E00               	movlw	0
   650   000860  6E1D               	movwf	main@i_79^0,c
   651   000862                     l1263:
   652                           
   653                           ;passwordblink.c: 60:            {;passwordblink.c: 61:             cmd(0X08);
   654   000862  0E08               	movlw	8
   655   000864  EC6E  F005         	call	_cmd
   656   000868                     
   657                           ;passwordblink.c: 62:              for(int i=0;i<=30000;i++);
   658   000868  0E00               	movlw	0
   659   00086A  6E20               	movwf	(main@i_80+1)^0,c
   660   00086C  0E00               	movlw	0
   661   00086E  6E1F               	movwf	main@i_80^0,c
   662   000870                     l1271:
   663   000870  4A1F               	infsnz	main@i_80^0,f,c
   664   000872  2A20               	incf	(main@i_80+1)^0,f,c
   665   000874  BE20               	btfsc	(main@i_80+1)^0,7,c
   666   000876  EF46  F004         	goto	u551
   667   00087A  0E31               	movlw	49
   668   00087C  5C1F               	subwf	main@i_80^0,w,c
   669   00087E  0E75               	movlw	117
   670   000880  5820               	subwfb	(main@i_80+1)^0,w,c
   671   000882  A0D8               	btfss	status,0,c
   672   000884  EF46  F004         	goto	u551
   673   000888  EF48  F004         	goto	u550
   674   00088C                     u551:
   675   00088C  EF38  F004         	goto	l1271
   676   000890                     u550:
   677   000890                     
   678                           ;passwordblink.c: 63:         cmd(0X0E);
   679   000890  0E0E               	movlw	14
   680   000892  EC6E  F005         	call	_cmd
   681   000896                     
   682                           ;passwordblink.c: 64:          for(int i=0;i<=30000;i++);
   683   000896  0E00               	movlw	0
   684   000898  6E22               	movwf	(main@i_81+1)^0,c
   685   00089A  0E00               	movlw	0
   686   00089C  6E21               	movwf	main@i_81^0,c
   687   00089E                     l1283:
   688   00089E  4A21               	infsnz	main@i_81^0,f,c
   689   0008A0  2A22               	incf	(main@i_81+1)^0,f,c
   690   0008A2  BE22               	btfsc	(main@i_81+1)^0,7,c
   691   0008A4  EF5D  F004         	goto	u561
   692   0008A8  0E31               	movlw	49
   693   0008AA  5C21               	subwf	main@i_81^0,w,c
   694   0008AC  0E75               	movlw	117
   695   0008AE  5822               	subwfb	(main@i_81+1)^0,w,c
   696   0008B0  A0D8               	btfss	status,0,c
   697   0008B2  EF5D  F004         	goto	u561
   698   0008B6  EF5F  F004         	goto	u560
   699   0008BA                     u561:
   700   0008BA  EF4F  F004         	goto	l1283
   701   0008BE                     u560:
   702   0008BE                     
   703                           ;passwordblink.c: 65:              }
   704   0008BE  4A1D               	infsnz	main@i_79^0,f,c
   705   0008C0  2A1E               	incf	(main@i_79+1)^0,f,c
   706   0008C2  BE1E               	btfsc	(main@i_79+1)^0,7,c
   707   0008C4  EF6D  F004         	goto	u571
   708   0008C8  501E               	movf	(main@i_79+1)^0,w,c
   709   0008CA  E109               	bnz	u570
   710   0008CC  0E0A               	movlw	10
   711   0008CE  5C1D               	subwf	main@i_79^0,w,c
   712   0008D0  A0D8               	btfss	status,0,c
   713   0008D2  EF6D  F004         	goto	u571
   714   0008D6  EF6F  F004         	goto	u570
   715   0008DA                     u571:
   716   0008DA  EF31  F004         	goto	l1263
   717   0008DE                     u570:
   718   0008DE                     
   719                           ;passwordblink.c: 66:             for(long i=0;i<=1000000;i++);
   720   0008DE  0E00               	movlw	0
   721   0008E0  6E13               	movwf	main@i_82^0,c
   722   0008E2  0E00               	movlw	0
   723   0008E4  6E14               	movwf	(main@i_82+1)^0,c
   724   0008E6  0E00               	movlw	0
   725   0008E8  6E15               	movwf	(main@i_82+2)^0,c
   726   0008EA  0E00               	movlw	0
   727   0008EC  6E16               	movwf	(main@i_82+3)^0,c
   728   0008EE                     l1297:
   729   0008EE  0E01               	movlw	1
   730   0008F0  2613               	addwf	main@i_82^0,f,c
   731   0008F2  0E00               	movlw	0
   732   0008F4  2214               	addwfc	(main@i_82+1)^0,f,c
   733   0008F6  2215               	addwfc	(main@i_82+2)^0,f,c
   734   0008F8  2216               	addwfc	(main@i_82+3)^0,f,c
   735   0008FA  BE16               	btfsc	(main@i_82+3)^0,7,c
   736   0008FC  EF8D  F004         	goto	u581
   737   000900  5016               	movf	(main@i_82+3)^0,w,c
   738   000902  E10D               	bnz	u580
   739   000904  0E41               	movlw	65
   740   000906  5C13               	subwf	main@i_82^0,w,c
   741   000908  0E42               	movlw	66
   742   00090A  5814               	subwfb	(main@i_82+1)^0,w,c
   743   00090C  0E0F               	movlw	15
   744   00090E  5815               	subwfb	(main@i_82+2)^0,w,c
   745   000910  A0D8               	btfss	status,0,c
   746   000912  EF8D  F004         	goto	u581
   747   000916  EF8F  F004         	goto	u580
   748   00091A                     u581:
   749   00091A  EF77  F004         	goto	l1297
   750   00091E                     u580:
   751   00091E  EF2D  F003         	goto	l1165
   752   000922  EF00  F000         	goto	start
   753   000926                     __end_of_main:
   754                           	callstack 0
   755                           
   756 ;; *************** function _strcmp *****************
   757 ;; Defined at:
   758 ;;		line 3 in file "C:\Program Files\Microchip\xc8\v2.46\pic\sources\c99\common\strcmp.c"
   759 ;; Parameters:    Size  Location     Type
   760 ;;  l               1    0[COMRAM] PTR const unsigned char 
   761 ;;		 -> inp(5), 
   762 ;;  r               1    1[COMRAM] PTR const unsigned char 
   763 ;;		 -> pass(5), 
   764 ;; Auto vars:     Size  Location     Type
   765 ;;		None
   766 ;; Return value:  Size  Location     Type
   767 ;;                  2    0[COMRAM] int 
   768 ;; Registers used:
   769 ;;		wreg, fsr1l, fsr1h, fsr2l, fsr2h, status,2, status,0
   770 ;; Tracked objects:
   771 ;;		On entry : 0/0
   772 ;;		On exit  : 0/0
   773 ;;		Unchanged: 0/0
   774 ;; Data sizes:     COMRAM   BANK0   BANK1   BANK2   BANK3   BANK4   BANK5
   775 ;;      Params:         2       0       0       0       0       0       0
   776 ;;      Locals:         0       0       0       0       0       0       0
   777 ;;      Temps:          2       0       0       0       0       0       0
   778 ;;      Totals:         4       0       0       0       0       0       0
   779 ;;Total ram usage:        4 bytes
   780 ;; Hardware stack levels used: 1
   781 ;; This function calls:
   782 ;;		Nothing
   783 ;; This function is called by:
   784 ;;		_main
   785 ;; This function uses a non-reentrant model
   786 ;;
   787                           
   788                           	psect	text1
   789   000B3C                     __ptext1:
   790                           	callstack 0
   791   000B3C                     _strcmp:
   792                           	callstack 30
   793   000B3C  EFA2  F005         	goto	l1147
   794   000B40                     l1145:
   795   000B40  2A01               	incf	strcmp@l^0,f,c
   796   000B42  2A02               	incf	strcmp@r^0,f,c
   797   000B44                     l1147:
   798   000B44  5002               	movf	strcmp@r^0,w,c
   799   000B46  6ED9               	movwf	fsr2l,c
   800   000B48  6ADA               	clrf	fsr2h,c
   801   000B4A  5001               	movf	strcmp@l^0,w,c
   802   000B4C  6EE1               	movwf	fsr1l,c
   803   000B4E  6AE2               	clrf	fsr1h,c
   804   000B50  50DE               	movf	postinc2,w,c
   805   000B52  18E6               	xorwf	postinc1,w,c
   806   000B54  A4D8               	btfss	status,2,c
   807   000B56  EFAF  F005         	goto	u411
   808   000B5A  EFB1  F005         	goto	u410
   809   000B5E                     u411:
   810   000B5E  EFBC  F005         	goto	l1151
   811   000B62                     u410:
   812   000B62  5001               	movf	strcmp@l^0,w,c
   813   000B64  6ED9               	movwf	fsr2l,c
   814   000B66  6ADA               	clrf	fsr2h,c
   815   000B68  50DF               	movf	indf2,w,c
   816   000B6A  A4D8               	btfss	status,2,c
   817   000B6C  EFBA  F005         	goto	u421
   818   000B70  EFBC  F005         	goto	u420
   819   000B74                     u421:
   820   000B74  EFA0  F005         	goto	l1145
   821   000B78                     u420:
   822   000B78                     l1151:
   823   000B78  5001               	movf	strcmp@l^0,w,c
   824   000B7A  6ED9               	movwf	fsr2l,c
   825   000B7C  6ADA               	clrf	fsr2h,c
   826   000B7E  50DF               	movf	indf2,w,c
   827   000B80  6E03               	movwf	??_strcmp^0,c
   828   000B82  5002               	movf	strcmp@r^0,w,c
   829   000B84  6ED9               	movwf	fsr2l,c
   830   000B86  6ADA               	clrf	fsr2h,c
   831   000B88  50DF               	movf	indf2,w,c
   832   000B8A  6E04               	movwf	(??_strcmp+1)^0,c
   833   000B8C  5004               	movf	(??_strcmp+1)^0,w,c
   834   000B8E  5C03               	subwf	??_strcmp^0,w,c
   835   000B90  6E01               	movwf	?_strcmp^0,c
   836   000B92  6A02               	clrf	(?_strcmp+1)^0,c
   837   000B94  A0D8               	btfss	status,0,c
   838   000B96  0602               	decf	(?_strcmp+1)^0,f,c
   839   000B98  0012               	return		;funcret
   840   000B9A                     __end_of_strcmp:
   841                           	callstack 0
   842                           
   843 ;; *************** function _keypad *****************
   844 ;; Defined at:
   845 ;;		line 100 in file "passwordblink.c"
   846 ;; Parameters:    Size  Location     Type
   847 ;;		None
   848 ;; Auto vars:     Size  Location     Type
   849 ;;		None
   850 ;; Return value:  Size  Location     Type
   851 ;;                  1    wreg      unsigned char 
   852 ;; Registers used:
   853 ;;		wreg, status,2
   854 ;; Tracked objects:
   855 ;;		On entry : 0/0
   856 ;;		On exit  : 0/0
   857 ;;		Unchanged: 0/0
   858 ;; Data sizes:     COMRAM   BANK0   BANK1   BANK2   BANK3   BANK4   BANK5
   859 ;;      Params:         0       0       0       0       0       0       0
   860 ;;      Locals:         0       0       0       0       0       0       0
   861 ;;      Temps:          0       0       0       0       0       0       0
   862 ;;      Totals:         0       0       0       0       0       0       0
   863 ;;Total ram usage:        0 bytes
   864 ;; Hardware stack levels used: 1
   865 ;; This function calls:
   866 ;;		Nothing
   867 ;; This function is called by:
   868 ;;		_main
   869 ;; This function uses a non-reentrant model
   870 ;;
   871                           
   872                           	psect	text2
   873   000926                     __ptext2:
   874                           	callstack 0
   875   000926                     _keypad:
   876                           	callstack 30
   877   000926                     l100:
   878   000926                     
   879                           ;passwordblink.c: 103:     {;passwordblink.c: 104:     PORTB=0X0E;
   880   000926  0E0E               	movlw	14
   881   000928  6E81               	movwf	129,c	;volatile
   882   00092A                     
   883                           ;passwordblink.c: 105:     if(RB4==0)
   884   00092A  B881               	btfsc	3969,4,c	;volatile
   885   00092C  EF9A  F004         	goto	u61
   886   000930  EF9C  F004         	goto	u60
   887   000934                     u61:
   888   000934  EF9F  F004         	goto	l101
   889   000938                     u60:
   890   000938                     
   891                           ;passwordblink.c: 106:     {;passwordblink.c: 107:         return '0';
   892   000938  0E30               	movlw	48
   893   00093A  EF3D  F005         	goto	l102
   894   00093E                     l101:
   895   00093E  BA81               	btfsc	3969,5,c	;volatile
   896   000940  EFA4  F004         	goto	u71
   897   000944  EFA6  F004         	goto	u70
   898   000948                     u71:
   899   000948  EFA9  F004         	goto	l104
   900   00094C                     u70:
   901   00094C                     
   902                           ;passwordblink.c: 110:     {;passwordblink.c: 111:         return '1';
   903   00094C  0E31               	movlw	49
   904   00094E  EF3D  F005         	goto	l102
   905   000952                     l104:
   906   000952  BC81               	btfsc	3969,6,c	;volatile
   907   000954  EFAE  F004         	goto	u81
   908   000958  EFB0  F004         	goto	u80
   909   00095C                     u81:
   910   00095C  EFB3  F004         	goto	l106
   911   000960                     u80:
   912   000960                     
   913                           ;passwordblink.c: 114:     {;passwordblink.c: 115:         return '2';
   914   000960  0E32               	movlw	50
   915   000962  EF3D  F005         	goto	l102
   916   000966                     l106:
   917   000966  BE81               	btfsc	3969,7,c	;volatile
   918   000968  EFB8  F004         	goto	u91
   919   00096C  EFBA  F004         	goto	u90
   920   000970                     u91:
   921   000970  EFBD  F004         	goto	l105
   922   000974                     u90:
   923   000974                     
   924                           ;passwordblink.c: 118:     {;passwordblink.c: 119:         return '3';
   925   000974  0E33               	movlw	51
   926   000976  EF3D  F005         	goto	l102
   927   00097A                     l105:
   928   00097A                     
   929                           ;passwordblink.c: 121:     PORTB=0X0D;
   930   00097A  0E0D               	movlw	13
   931   00097C  6E81               	movwf	129,c	;volatile
   932   00097E                     
   933                           ;passwordblink.c: 122:      if(RB4==0)
   934   00097E  B881               	btfsc	3969,4,c	;volatile
   935   000980  EFC4  F004         	goto	u101
   936   000984  EFC6  F004         	goto	u100
   937   000988                     u101:
   938   000988  EFC9  F004         	goto	l109
   939   00098C                     u100:
   940   00098C                     
   941                           ;passwordblink.c: 123:     {;passwordblink.c: 124:          return '4';
   942   00098C  0E34               	movlw	52
   943   00098E  EF3D  F005         	goto	l102
   944   000992                     l109:
   945   000992  BA81               	btfsc	3969,5,c	;volatile
   946   000994  EFCE  F004         	goto	u111
   947   000998  EFD0  F004         	goto	u110
   948   00099C                     u111:
   949   00099C  EFD3  F004         	goto	l111
   950   0009A0                     u110:
   951   0009A0                     
   952                           ;passwordblink.c: 127:     {;passwordblink.c: 128:         return '5';
   953   0009A0  0E35               	movlw	53
   954   0009A2  EF3D  F005         	goto	l102
   955   0009A6                     l111:
   956   0009A6  BC81               	btfsc	3969,6,c	;volatile
   957   0009A8  EFD8  F004         	goto	u121
   958   0009AC  EFDA  F004         	goto	u120
   959   0009B0                     u121:
   960   0009B0  EFDD  F004         	goto	l113
   961   0009B4                     u120:
   962   0009B4                     
   963                           ;passwordblink.c: 131:     {;passwordblink.c: 132:         return '6';
   964   0009B4  0E36               	movlw	54
   965   0009B6  EF3D  F005         	goto	l102
   966   0009BA                     l113:
   967   0009BA  BE81               	btfsc	3969,7,c	;volatile
   968   0009BC  EFE2  F004         	goto	u131
   969   0009C0  EFE4  F004         	goto	u130
   970   0009C4                     u131:
   971   0009C4  EFE7  F004         	goto	l112
   972   0009C8                     u130:
   973   0009C8                     
   974                           ;passwordblink.c: 135:     {;passwordblink.c: 136:         return '7';
   975   0009C8  0E37               	movlw	55
   976   0009CA  EF3D  F005         	goto	l102
   977   0009CE                     l112:
   978   0009CE                     
   979                           ;passwordblink.c: 138:     PORTB=0X0B;
   980   0009CE  0E0B               	movlw	11
   981   0009D0  6E81               	movwf	129,c	;volatile
   982   0009D2                     
   983                           ;passwordblink.c: 139:      if(RB4==0)
   984   0009D2  B881               	btfsc	3969,4,c	;volatile
   985   0009D4  EFEE  F004         	goto	u141
   986   0009D8  EFF0  F004         	goto	u140
   987   0009DC                     u141:
   988   0009DC  EFF3  F004         	goto	l116
   989   0009E0                     u140:
   990   0009E0                     
   991                           ;passwordblink.c: 140:     {;passwordblink.c: 141:          return '8';
   992   0009E0  0E38               	movlw	56
   993   0009E2  EF3D  F005         	goto	l102
   994   0009E6                     l116:
   995   0009E6  BA81               	btfsc	3969,5,c	;volatile
   996   0009E8  EFF8  F004         	goto	u151
   997   0009EC  EFFA  F004         	goto	u150
   998   0009F0                     u151:
   999   0009F0  EFFD  F004         	goto	l118
  1000   0009F4                     u150:
  1001   0009F4                     
  1002                           ;passwordblink.c: 144:     {;passwordblink.c: 145:         return '9';
  1003   0009F4  0E39               	movlw	57
  1004   0009F6  EF3D  F005         	goto	l102
  1005   0009FA                     l118:
  1006   0009FA  BC81               	btfsc	3969,6,c	;volatile
  1007   0009FC  EF02  F005         	goto	u161
  1008   000A00  EF04  F005         	goto	u160
  1009   000A04                     u161:
  1010   000A04  EF07  F005         	goto	l120
  1011   000A08                     u160:
  1012   000A08                     
  1013                           ;passwordblink.c: 148:     {;passwordblink.c: 149:         return 'A';
  1014   000A08  0E41               	movlw	65
  1015   000A0A  EF3D  F005         	goto	l102
  1016   000A0E                     l120:
  1017   000A0E  BE81               	btfsc	3969,7,c	;volatile
  1018   000A10  EF0C  F005         	goto	u171
  1019   000A14  EF0E  F005         	goto	u170
  1020   000A18                     u171:
  1021   000A18  EF11  F005         	goto	l119
  1022   000A1C                     u170:
  1023   000A1C                     
  1024                           ;passwordblink.c: 152:     {;passwordblink.c: 153:         return 'B';
  1025   000A1C  0E42               	movlw	66
  1026   000A1E  EF3D  F005         	goto	l102
  1027   000A22                     l119:
  1028   000A22                     
  1029                           ;passwordblink.c: 155:     PORTB=0X07;
  1030   000A22  0E07               	movlw	7
  1031   000A24  6E81               	movwf	129,c	;volatile
  1032   000A26                     
  1033                           ;passwordblink.c: 156:     if(RB4==0)
  1034   000A26  B881               	btfsc	3969,4,c	;volatile
  1035   000A28  EF18  F005         	goto	u181
  1036   000A2C  EF1A  F005         	goto	u180
  1037   000A30                     u181:
  1038   000A30  EF1D  F005         	goto	l123
  1039   000A34                     u180:
  1040   000A34                     
  1041                           ;passwordblink.c: 157:     {;passwordblink.c: 158:         return 'C';
  1042   000A34  0E43               	movlw	67
  1043   000A36  EF3D  F005         	goto	l102
  1044   000A3A                     l123:
  1045   000A3A  BA81               	btfsc	3969,5,c	;volatile
  1046   000A3C  EF22  F005         	goto	u191
  1047   000A40  EF24  F005         	goto	u190
  1048   000A44                     u191:
  1049   000A44  EF27  F005         	goto	l125
  1050   000A48                     u190:
  1051   000A48                     
  1052                           ;passwordblink.c: 161:     {;passwordblink.c: 162:         return 'D';
  1053   000A48  0E44               	movlw	68
  1054   000A4A  EF3D  F005         	goto	l102
  1055   000A4E                     l125:
  1056   000A4E  BC81               	btfsc	3969,6,c	;volatile
  1057   000A50  EF2C  F005         	goto	u201
  1058   000A54  EF2E  F005         	goto	u200
  1059   000A58                     u201:
  1060   000A58  EF31  F005         	goto	l127
  1061   000A5C                     u200:
  1062   000A5C                     
  1063                           ;passwordblink.c: 165:     {;passwordblink.c: 166:         return 'E';
  1064   000A5C  0E45               	movlw	69
  1065   000A5E  EF3D  F005         	goto	l102
  1066   000A62                     l127:
  1067   000A62  BE81               	btfsc	3969,7,c	;volatile
  1068   000A64  EF36  F005         	goto	u211
  1069   000A68  EF38  F005         	goto	u210
  1070   000A6C                     u211:
  1071   000A6C  EF3B  F005         	goto	l124
  1072   000A70                     u210:
  1073   000A70                     
  1074                           ;passwordblink.c: 169:     {;passwordblink.c: 170:         return 'F';
  1075   000A70  0E46               	movlw	70
  1076   000A72  EF3D  F005         	goto	l102
  1077   000A76                     l124:
  1078   000A76  EF93  F004         	goto	l100
  1079   000A7A                     l102:
  1080   000A7A  0012               	return		;funcret
  1081   000A7C                     __end_of_keypad:
  1082                           	callstack 0
  1083                           
  1084 ;; *************** function _display *****************
  1085 ;; Defined at:
  1086 ;;		line 91 in file "passwordblink.c"
  1087 ;; Parameters:    Size  Location     Type
  1088 ;;  p               1    5[COMRAM] PTR const unsigned char 
  1089 ;;		 -> STR_3(15), STR_2(17), STR_1(15), 
  1090 ;; Auto vars:     Size  Location     Type
  1091 ;;		None
  1092 ;; Return value:  Size  Location     Type
  1093 ;;                  1    wreg      void 
  1094 ;; Registers used:
  1095 ;;		wreg, status,2, status,0, tblptrl, tblptrh, tblptru, cstack
  1096 ;; Tracked objects:
  1097 ;;		On entry : 0/0
  1098 ;;		On exit  : 0/0
  1099 ;;		Unchanged: 0/0
  1100 ;; Data sizes:     COMRAM   BANK0   BANK1   BANK2   BANK3   BANK4   BANK5
  1101 ;;      Params:         1       0       0       0       0       0       0
  1102 ;;      Locals:         0       0       0       0       0       0       0
  1103 ;;      Temps:          0       0       0       0       0       0       0
  1104 ;;      Totals:         1       0       0       0       0       0       0
  1105 ;;Total ram usage:        1 bytes
  1106 ;; Hardware stack levels used: 1
  1107 ;; Hardware stack levels required when called: 1
  1108 ;; This function calls:
  1109 ;;		_data
  1110 ;; This function is called by:
  1111 ;;		_main
  1112 ;; This function uses a non-reentrant model
  1113 ;;
  1114                           
  1115                           	psect	text3
  1116   000BCA                     __ptext3:
  1117                           	callstack 0
  1118   000BCA                     _display:
  1119                           	callstack 29
  1120   000BCA                     
  1121                           ;passwordblink.c: 91: void display(const char *p);passwordblink.c: 92: {;passwordblink.c
      +                          : 93:     while(*p)
  1122   000BCA  EFEE  F005         	goto	l1141
  1123   000BCE                     l1137:
  1124                           
  1125                           ;passwordblink.c: 94:     {;passwordblink.c: 95:         data(*p);
  1126   000BCE  C006  FFF6         	movff	display@p,tblptrl
  1127   000BD2                     	if	0	;There is only one active tblptr byte
  1128   000BD2                     	endif
  1129   000BD2                     	if	0	;tblptru may be non-zero
  1130   000BD2                     	endif
  1131   000BD2                     	if	0	;tblptru may be non-zero
  1132   000BD2                     	endif
  1133   000BD2  0008               	tblrd		*
  1134   000BD4  50F5               	movf	tablat,w,c
  1135   000BD6  EC3E  F005         	call	_data
  1136   000BDA                     
  1137                           ;passwordblink.c: 96:         p++;
  1138   000BDA  2A06               	incf	display@p^0,f,c
  1139   000BDC                     l1141:
  1140                           
  1141                           ;passwordblink.c: 93:     while(*p)
  1142   000BDC  C006  FFF6         	movff	display@p,tblptrl
  1143   000BE0                     	if	0	;There is only one active tblptr byte
  1144   000BE0                     	endif
  1145   000BE0                     	if	0	;tblptru may be non-zero
  1146   000BE0                     	endif
  1147   000BE0                     	if	0	;tblptru may be non-zero
  1148   000BE0                     	endif
  1149   000BE0  0008               	tblrd		*
  1150   000BE2  50F5               	movf	tablat,w,c
  1151   000BE4  0900               	iorlw	0
  1152   000BE6  A4D8               	btfss	status,2,c
  1153   000BE8  EFF8  F005         	goto	u401
  1154   000BEC  EFFA  F005         	goto	u400
  1155   000BF0                     u401:
  1156   000BF0  EFE7  F005         	goto	l1137
  1157   000BF4                     u400:
  1158   000BF4  0012               	return		;funcret
  1159   000BF6                     __end_of_display:
  1160                           	callstack 0
  1161                           
  1162 ;; *************** function _data *****************
  1163 ;; Defined at:
  1164 ;;		line 81 in file "passwordblink.c"
  1165 ;; Parameters:    Size  Location     Type
  1166 ;;  a               1    wreg     unsigned char 
  1167 ;; Auto vars:     Size  Location     Type
  1168 ;;  a               1    0[COMRAM] unsigned char 
  1169 ;;  i               2    3[COMRAM] int 
  1170 ;;  i               2    1[COMRAM] int 
  1171 ;; Return value:  Size  Location     Type
  1172 ;;                  1    wreg      void 
  1173 ;; Registers used:
  1174 ;;		wreg, status,2, status,0
  1175 ;; Tracked objects:
  1176 ;;		On entry : 0/0
  1177 ;;		On exit  : 0/0
  1178 ;;		Unchanged: 0/0
  1179 ;; Data sizes:     COMRAM   BANK0   BANK1   BANK2   BANK3   BANK4   BANK5
  1180 ;;      Params:         0       0       0       0       0       0       0
  1181 ;;      Locals:         5       0       0       0       0       0       0
  1182 ;;      Temps:          0       0       0       0       0       0       0
  1183 ;;      Totals:         5       0       0       0       0       0       0
  1184 ;;Total ram usage:        5 bytes
  1185 ;; Hardware stack levels used: 1
  1186 ;; This function calls:
  1187 ;;		Nothing
  1188 ;; This function is called by:
  1189 ;;		_main
  1190 ;;		_display
  1191 ;; This function uses a non-reentrant model
  1192 ;;
  1193                           
  1194                           	psect	text4
  1195   000A7C                     __ptext4:
  1196                           	callstack 0
  1197   000A7C                     _data:
  1198                           	callstack 29
  1199                           
  1200                           ;incstack = 0
  1201                           ;data@a stored from wreg
  1202   000A7C  6E01               	movwf	data@a^0,c
  1203   000A7E                     
  1204                           ;passwordblink.c: 81: void data(unsigned char a);passwordblink.c: 82: {;passwordblink.c:
      +                           83:     RC0=1;
  1205   000A7E  8082               	bsf	3970,0,c	;volatile
  1206                           
  1207                           ;passwordblink.c: 84:      RC1=0;
  1208   000A80  9282               	bcf	3970,1,c	;volatile
  1209   000A82                     
  1210                           ;passwordblink.c: 85:      PORTD=a;
  1211   000A82  C001  FF83         	movff	data@a,3971	;volatile
  1212   000A86                     
  1213                           ;passwordblink.c: 86:     RC2=1;
  1214   000A86  8482               	bsf	3970,2,c	;volatile
  1215   000A88                     
  1216                           ;passwordblink.c: 87:     for(int i=0;i<=100;i++);
  1217   000A88  0E00               	movlw	0
  1218   000A8A  6E03               	movwf	(data@i+1)^0,c
  1219   000A8C  0E00               	movlw	0
  1220   000A8E  6E02               	movwf	data@i^0,c
  1221   000A90                     l827:
  1222   000A90  4A02               	infsnz	data@i^0,f,c
  1223   000A92  2A03               	incf	(data@i+1)^0,f,c
  1224   000A94  BE03               	btfsc	(data@i+1)^0,7,c
  1225   000A96  EF56  F005         	goto	u11
  1226   000A9A  5003               	movf	(data@i+1)^0,w,c
  1227   000A9C  E109               	bnz	u10
  1228   000A9E  0E65               	movlw	101
  1229   000AA0  5C02               	subwf	data@i^0,w,c
  1230   000AA2  A0D8               	btfss	status,0,c
  1231   000AA4  EF56  F005         	goto	u11
  1232   000AA8  EF58  F005         	goto	u10
  1233   000AAC                     u11:
  1234   000AAC  EF48  F005         	goto	l827
  1235   000AB0                     u10:
  1236   000AB0                     
  1237                           ;passwordblink.c: 88:     RC2=0;
  1238   000AB0  9482               	bcf	3970,2,c	;volatile
  1239   000AB2                     
  1240                           ;passwordblink.c: 89:     for(int i=0;i<=10000;i++);
  1241   000AB2  0E00               	movlw	0
  1242   000AB4  6E05               	movwf	(data@i_90+1)^0,c
  1243   000AB6  0E00               	movlw	0
  1244   000AB8  6E04               	movwf	data@i_90^0,c
  1245   000ABA                     l837:
  1246   000ABA  4A04               	infsnz	data@i_90^0,f,c
  1247   000ABC  2A05               	incf	(data@i_90+1)^0,f,c
  1248   000ABE  BE05               	btfsc	(data@i_90+1)^0,7,c
  1249   000AC0  EF6B  F005         	goto	u21
  1250   000AC4  0E11               	movlw	17
  1251   000AC6  5C04               	subwf	data@i_90^0,w,c
  1252   000AC8  0E27               	movlw	39
  1253   000ACA  5805               	subwfb	(data@i_90+1)^0,w,c
  1254   000ACC  A0D8               	btfss	status,0,c
  1255   000ACE  EF6B  F005         	goto	u21
  1256   000AD2  EF6D  F005         	goto	u20
  1257   000AD6                     u21:
  1258   000AD6  EF5D  F005         	goto	l837
  1259   000ADA                     u20:
  1260   000ADA  0012               	return		;funcret
  1261   000ADC                     __end_of_data:
  1262                           	callstack 0
  1263                           
  1264 ;; *************** function _cmd *****************
  1265 ;; Defined at:
  1266 ;;		line 72 in file "passwordblink.c"
  1267 ;; Parameters:    Size  Location     Type
  1268 ;;  a               1    wreg     unsigned char 
  1269 ;; Auto vars:     Size  Location     Type
  1270 ;;  a               1    0[COMRAM] unsigned char 
  1271 ;;  i               2    3[COMRAM] int 
  1272 ;;  i               2    1[COMRAM] int 
  1273 ;; Return value:  Size  Location     Type
  1274 ;;                  1    wreg      void 
  1275 ;; Registers used:
  1276 ;;		wreg, status,2, status,0
  1277 ;; Tracked objects:
  1278 ;;		On entry : 0/0
  1279 ;;		On exit  : 0/0
  1280 ;;		Unchanged: 0/0
  1281 ;; Data sizes:     COMRAM   BANK0   BANK1   BANK2   BANK3   BANK4   BANK5
  1282 ;;      Params:         0       0       0       0       0       0       0
  1283 ;;      Locals:         5       0       0       0       0       0       0
  1284 ;;      Temps:          0       0       0       0       0       0       0
  1285 ;;      Totals:         5       0       0       0       0       0       0
  1286 ;;Total ram usage:        5 bytes
  1287 ;; Hardware stack levels used: 1
  1288 ;; This function calls:
  1289 ;;		Nothing
  1290 ;; This function is called by:
  1291 ;;		_main
  1292 ;; This function uses a non-reentrant model
  1293 ;;
  1294                           
  1295                           	psect	text5
  1296   000ADC                     __ptext5:
  1297                           	callstack 0
  1298   000ADC                     _cmd:
  1299                           	callstack 30
  1300                           
  1301                           ;incstack = 0
  1302                           ;cmd@a stored from wreg
  1303   000ADC  6E01               	movwf	cmd@a^0,c
  1304   000ADE                     
  1305                           ;passwordblink.c: 72: void cmd(unsigned char a);passwordblink.c: 73: {;passwordblink.c: 
      +                          74:      RC0=RC1=0;
  1306   000ADE  9282               	bcf	3970,1,c	;volatile
  1307   000AE0  9082               	bcf	3970,0,c	;volatile
  1308   000AE2                     
  1309                           ;passwordblink.c: 75:     PORTD=a;
  1310   000AE2  C001  FF83         	movff	cmd@a,3971	;volatile
  1311   000AE6                     
  1312                           ;passwordblink.c: 76:     RC2=1;
  1313   000AE6  8482               	bsf	3970,2,c	;volatile
  1314   000AE8                     
  1315                           ;passwordblink.c: 77:     for(int i=0;i<=100;i++);
  1316   000AE8  0E00               	movlw	0
  1317   000AEA  6E03               	movwf	(cmd@i+1)^0,c
  1318   000AEC  0E00               	movlw	0
  1319   000AEE  6E02               	movwf	cmd@i^0,c
  1320   000AF0                     l853:
  1321   000AF0  4A02               	infsnz	cmd@i^0,f,c
  1322   000AF2  2A03               	incf	(cmd@i+1)^0,f,c
  1323   000AF4  BE03               	btfsc	(cmd@i+1)^0,7,c
  1324   000AF6  EF86  F005         	goto	u31
  1325   000AFA  5003               	movf	(cmd@i+1)^0,w,c
  1326   000AFC  E109               	bnz	u30
  1327   000AFE  0E65               	movlw	101
  1328   000B00  5C02               	subwf	cmd@i^0,w,c
  1329   000B02  A0D8               	btfss	status,0,c
  1330   000B04  EF86  F005         	goto	u31
  1331   000B08  EF88  F005         	goto	u30
  1332   000B0C                     u31:
  1333   000B0C  EF78  F005         	goto	l853
  1334   000B10                     u30:
  1335   000B10                     
  1336                           ;passwordblink.c: 78:     RC2=0;
  1337   000B10  9482               	bcf	3970,2,c	;volatile
  1338   000B12                     
  1339                           ;passwordblink.c: 79:      for(int i=0;i<=10000;i++);
  1340   000B12  0E00               	movlw	0
  1341   000B14  6E05               	movwf	(cmd@i_86+1)^0,c
  1342   000B16  0E00               	movlw	0
  1343   000B18  6E04               	movwf	cmd@i_86^0,c
  1344   000B1A                     l863:
  1345   000B1A  4A04               	infsnz	cmd@i_86^0,f,c
  1346   000B1C  2A05               	incf	(cmd@i_86+1)^0,f,c
  1347   000B1E  BE05               	btfsc	(cmd@i_86+1)^0,7,c
  1348   000B20  EF9B  F005         	goto	u41
  1349   000B24  0E11               	movlw	17
  1350   000B26  5C04               	subwf	cmd@i_86^0,w,c
  1351   000B28  0E27               	movlw	39
  1352   000B2A  5805               	subwfb	(cmd@i_86+1)^0,w,c
  1353   000B2C  A0D8               	btfss	status,0,c
  1354   000B2E  EF9B  F005         	goto	u41
  1355   000B32  EF9D  F005         	goto	u40
  1356   000B36                     u41:
  1357   000B36  EF8D  F005         	goto	l863
  1358   000B3A                     u40:
  1359   000B3A  0012               	return		;funcret
  1360   000B3C                     __end_of_cmd:
  1361                           	callstack 0
  1362                           
  1363                           	psect	rparam
  1364   000000                     tosu	equ	0xFFF
  1365                           tosh	equ	0xFFE
  1366                           tosl	equ	0xFFD
  1367                           stkptr	equ	0xFFC
  1368                           pclatu	equ	0xFFB
  1369                           pclath	equ	0xFFA
  1370                           pcl	equ	0xFF9
  1371                           tblptru	equ	0xFF8
  1372                           tblptrh	equ	0xFF7
  1373                           tblptrl	equ	0xFF6
  1374                           tablat	equ	0xFF5
  1375                           prodh	equ	0xFF4
  1376                           prodl	equ	0xFF3
  1377                           indf0	equ	0xFEF
  1378                           postinc0	equ	0xFEE
  1379                           postdec0	equ	0xFED
  1380                           preinc0	equ	0xFEC
  1381                           plusw0	equ	0xFEB
  1382                           fsr0h	equ	0xFEA
  1383                           fsr0l	equ	0xFE9
  1384                           wreg	equ	0xFE8
  1385                           indf1	equ	0xFE7
  1386                           postinc1	equ	0xFE6
  1387                           postdec1	equ	0xFE5
  1388                           preinc1	equ	0xFE4
  1389                           plusw1	equ	0xFE3
  1390                           fsr1h	equ	0xFE2
  1391                           fsr1l	equ	0xFE1
  1392                           bsr	equ	0xFE0
  1393                           indf2	equ	0xFDF
  1394                           postinc2	equ	0xFDE
  1395                           postdec2	equ	0xFDD
  1396                           preinc2	equ	0xFDC
  1397                           plusw2	equ	0xFDB
  1398                           fsr2h	equ	0xFDA
  1399                           fsr2l	equ	0xFD9
  1400                           status	equ	0xFD8

Data Sizes:
    Strings     47
    Constant    0
    Data        10
    BSS         1
    Persistent  0
    Stack       0

Auto Spaces:
    Space          Size  Autos    Used
    COMRAM           95     34      45
    BANK0           160      0       0
    BANK1           256      0       0
    BANK2           256      0       0
    BANK3           256      0       0
    BANK4           256      0       0
    BANK5           256      0       0

Pointer List with Targets:

    display@p	PTR const unsigned char  size(1) Largest target is 17
		 -> STR_1(CODE[15]), STR_2(CODE[17]), STR_3(CODE[15]), 

    strcmp@l	PTR const unsigned char  size(1) Largest target is 5
		 -> inp(COMRAM[5]), 

    strcmp@r	PTR const unsigned char  size(1) Largest target is 5
		 -> pass(COMRAM[5]), 


Critical Paths under _main in COMRAM

    _main->_display
    _display->_data

Critical Paths under _main in BANK0

    None.

Critical Paths under _main in BANK1

    None.

Critical Paths under _main in BANK2

    None.

Critical Paths under _main in BANK3

    None.

Critical Paths under _main in BANK4

    None.

Critical Paths under _main in BANK5

    None.

Call Graph Tables:

 ---------------------------------------------------------------------------------
 (Depth) Function   	        Calls       Base Space   Used Autos Params    Refs
 ---------------------------------------------------------------------------------
 (0) _main                                                28    28      0    1222
                                              6 COMRAM    28    28      0
                                _cmd
                               _data
                            _display
                             _keypad
                             _strcmp
 ---------------------------------------------------------------------------------
 (1) _strcmp                                               4     2      2     264
                                              0 COMRAM     4     2      2
 ---------------------------------------------------------------------------------
 (1) _keypad                                               0     0      0       0
 ---------------------------------------------------------------------------------
 (1) _display                                              1     0      1     348
                                              5 COMRAM     1     0      1
                               _data
 ---------------------------------------------------------------------------------
 (2) _data                                                 5     5      0      75
                                              0 COMRAM     5     5      0
 ---------------------------------------------------------------------------------
 (1) _cmd                                                  5     5      0      75
                                              0 COMRAM     5     5      0
 ---------------------------------------------------------------------------------
 Estimated maximum stack depth 2
 ---------------------------------------------------------------------------------

 Call Graph Graphs:

 _main (ROOT)
   _cmd
   _data
   _display
     _data
   _keypad
   _strcmp

 Address spaces:
Name               Size   Autos  Total    Cost      Usage
BIGRAM             5FF      0       0      21        0.0%
BITBIGSFRlll       281      0       0      19        0.0%
EEDATA             100      0       0       0        0.0%
BITBANK5           100      0       0      14        0.0%
BANK5              100      0       0      15        0.0%
BITBANK4           100      0       0      12        0.0%
BANK4              100      0       0      13        0.0%
BITBANK3           100      0       0      10        0.0%
BANK3              100      0       0      11        0.0%
BITBANK2           100      0       0       8        0.0%
BANK2              100      0       0       9        0.0%
BITBANK1           100      0       0       6        0.0%
BANK1              100      0       0       7        0.0%
BITBANK0            A0      0       0       4        0.0%
BANK0               A0      0       0       5        0.0%
BITCOMRAM           5F      0       0       0        0.0%
COMRAM              5F     22      2D       1       47.4%
BITBIGSFRh          3E      0       0      16        0.0%
BITBIGSFRlh         2B      0       0      17        0.0%
BITBIGSFRllh         F      0       0      18        0.0%
BIGSFR               0      0       0     200        0.0%
BITSFR_3             0      0       0     200        0.0%
SFR_3                0      0       0     200        0.0%
BITSFR_2             0      0       0     200        0.0%
SFR_2                0      0       0     200        0.0%
BITSFR_1             0      0       0     200        0.0%
SFR_1                0      0       0     200        0.0%
BITSFR               0      0       0     200        0.0%
SFR                  0      0       0     200        0.0%
STACK                0      0       0       2        0.0%
NULL                 0      0       0       0        0.0%
ABS                  0      0      2D      20        0.0%
DATA                 0      0      2D       3        0.0%
CODE                 0      0       0       0        0.0%


Microchip Technology PIC18 Macro Assembler V2.46 build 20240104201356 
Symbol Table                                                                                   Tue Aug 13 09:56:04 2024

                     l50 068E                       l81 0B10                       l91 0ADA  
                     l84 0B3A                       l88 0AB0                       l97 0BF4  
                     u10 0AB0                       u11 0AAC                       u20 0ADA  
                     u21 0AD6                       u30 0B10                       u31 0B0C  
                     u40 0B3A                       u41 0B36                       u60 0938  
                     u61 0934                       u70 094C                       u71 0948  
                     u80 0960                       u81 095C                       u90 0974  
                     u91 0970                      l100 0926                      l101 093E  
                    l102 0A7A                      l111 09A6                      l120 0A0E  
                    l112 09CE                      l104 0952                      l113 09BA  
                    l105 097A                      l106 0966                      l123 0A3A  
                    l124 0A76                      l116 09E6                      l125 0A4E  
                    l109 0992                      l118 09FA                      l127 0A62  
                    l119 0A22                      l821 0A88                      l901 097A  
                    l813 0B98                      l831 0AB2                      l815 0A7E  
                    l911 09A0                      l903 097E                      l841 0ADE  
                    l817 0A82                      l905 098C                      l843 0AE2  
                    l827 0A90                      l819 0A86                      l931 09E0  
                    l923 09C8                      l853 0AF0                      l845 0AE6  
                    l837 0ABA                      l829 0A94                      l917 09B4  
                    l863 0B1A                      l855 0AF4                      l847 0AE8  
                    l839 0ABE                      l943 0A08                      l927 09CE  
                    l865 0B1E                      l857 0B12                      l953 0A22  
                    l937 09F4                      l929 09D2                      l963 0A48  
                    l955 0A26                      l891 0960                      l875 0926  
                    l957 0A34                      l949 0A1C                      l885 094C  
                    l877 092A                      l975 0A70                      l879 0938  
                    l969 0A5C                      l897 0974                      _RC0 7C10  
                    _RC1 7C11                      _RB4 7C0C                      _RC2 7C12  
                    _RB5 7C0D                      _RB6 7C0E                      _RB7 7C0F  
                    u100 098C                      u101 0988                      u110 09A0  
                    u111 099C                      u200 0A5C                      u120 09B4  
                    u201 0A58                      u121 09B0                      u210 0A70  
                    u130 09C8                      u211 0A6C                      u131 09C4  
                    u140 09E0                      u141 09DC                      u150 09F4  
                    u151 09F0                      u400 0BF4                      u160 0A08  
                    u401 0BF0                      u161 0A04                      u170 0A1C  
                    u410 0B62                      u171 0A18                      u411 0B5E  
                    u180 0A34                      u420 0B78                      u500 077A  
                    u181 0A30                      u421 0B74                      u501 0776  
                    u190 0A48                      u510 07A8                      u430 069C  
                    u191 0A44                      u511 07A4                      u431 0698  
                    u520 07C8                      u440 06AA                      u521 07C4  
                    u441 06A6                      u530 0808                      u450 06B8  
                    u531 0804                      u451 06B4                      u540 084C  
                    u460 06C6                      u541 0848                      u461 06C2  
                    u550 0890                      u470 06D8                      u551 088C  
                    u471 06D4                      u560 08BE                      u480 06F6  
                    u561 08BA                      u481 06F2                      u570 08DE  
                    u490 0736                      u571 08DA                      u491 0732  
                    u580 091E                      u581 091A                      _cmd 0ADC  
                    _inp 0023                     l1201 073C                     l1211 0752  
                   l1203 0744                     l1141 0BDC                     l1221 077A  
                   l1135 0BCA                     l1151 0B78                     l1143 0B3C  
                   l1231 078C                     l1223 0780                     l1137 0BCE  
                   l1145 0B40                     l1233 07A8                     l1217 075A  
                   l1209 074C                     l1161 064E                     l1139 0BDA  
                   l1147 0B44                     l1251 081C                     l1243 07D8  
                   l1235 07AC                     l1219 075E                     l1171 066E  
                   l1163 0654                     l1155 0632                     l1149 0B62  
                   l1253 084C                     l1237 07C8                     l1229 0788  
                   l1245 080C                     l1181 06AA                     l1165 065A  
                   l1157 0642                     l1271 0870                     l1263 0862  
                   l1255 0852                     l1191 06F6                     l1183 06B8  
                   l1167 0660                     l1159 0648                     l1273 0874  
                   l1265 0868                     l1257 085A                     l1185 06C6  
                   l1177 0672                     l1169 0668                     ?_cmd 0001  
                   l1291 08DE                     l1283 089E                     l1275 0890  
                   l1187 06C8                     l1179 069C                     l1285 08A2  
                   l1277 0896                     l1197 0706                     l1189 06D8  
                   l1287 08BE                     l1199 0736                     l1297 08EE  
                   l1289 08C2                     STR_1 0612                     STR_2 0601  
                   STR_3 0621                     _data 0A7C                     cmd@a 0001  
                   cmd@i 0002                     _main 0632                     _pass 0028  
                   fsr1h 0FE2                     fsr2h 0FDA                     indf2 0FDF  
                   fsr1l 0FE1                     fsr2l 0FD9                     start 0000  
           ___param_bank 0000                    ??_cmd 0001                    ?_data 0001  
                  ?_main 0001                    _PORTB 0F81                    _PORTD 0F83  
                  _TRISB 0F93                    _TRISC 0F94                    _TRISD 0F95  
        __end_of_display 0BF6                    data@a 0001                    data@i 0002  
                  _index 002D                    main@i 0007                    tablat 0FF5  
                  status 0FD8          __initialization 0B9A             __end_of_data 0ADC  
           __end_of_main 0926                   ??_data 0001                   ??_main 0007  
          __activetblptr 0001                   _ADCON1 0FC1                   _keypad 0926  
                 isa$std 0001                   _strcmp 0B3C                ??_display 0007  
           __pdataCOMRAM 0023             __mediumconst 0000                   tblptrh 0FF7  
                 tblptrl 0FF6                   tblptru 0FF8               __accesstop 0060  
__end_of__initialization 0BBC            ___rparam_used 0001           __pcstackCOMRAM 0001  
                ?_keypad 0001                  ?_strcmp 0001                  __Hparam 0000  
                __Lparam 0000             __psmallconst 0600                  __pcinit 0B9A  
                __ramtop 0600                  __ptext0 0632                  __ptext1 0B3C  
                __ptext2 0926                  __ptext3 0BCA                  __ptext4 0A7C  
                __ptext5 0ADC                  cmd@i_86 0004                  _display 0BCA  
   end_of_initialization 0BBC                  postdec1 0FE5                  postinc0 0FEE  
                postinc1 0FE6                  postinc2 0FDE                  strcmp@l 0001  
                strcmp@r 0002            __pidataCOMRAM 0BF6           __end_of_keypad 0A7C  
         __end_of_strcmp 0B9A      start_initialization 0B9A              __end_of_cmd 0B3C  
               ??_keypad 0001                 ??_strcmp 0003              __pbssCOMRAM 002D  
               ?_display 0006              __smallconst 0600                copy_data0 0BAE  
               __Hrparam 0000                 __Lrparam 0000             __Lsmallconst 0600  
               data@i_90 0004                 isa$xinst 0000                 main@i_80 001F  
               main@i_81 0021                 main@i_73 0017                 main@i_74 0019  
               main@i_82 0013                 main@i_75 001B                 main@i_76 000B  
               main@i_77 000F                 main@i_79 001D                 display@p 0006  
